(dp1
S'spacing_EqLayer'
p2
(lp3
F101.01010101010101
aF101.26582278481013
asS'DS_EqLayer'
p4
F10228.870988364659
sS'metadata_EqLayer'
p5
S'Generated by Estimate_Regional_Gravity_Data_Reduced_EqLayer.ipynb on 18 July 2018 19:56:26 UTC'
p6
sS'M_source'
p7
I8000
sS'shape_EqLayer'
p8
(I100
I80
tp9
sS'area_EqLayer'
p10
(lp11
F-5000
aF5000
aF-4000
aF4000
as.