(dp1
S'spacing_EqLayer'
p2
(lp3
F404.04040404040404
aF405.0632911392405
asS'DS_EqLayer'
p4
F163661.93581383454
sS'metadata_EqLayer'
p5
S'Generated by Estimate_Regional_Gravity_Data_Extended_EqLayer.ipynb on 09 July 2018 15:23:31 UTC'
p6
sS'M_source'
p7
I8000
sS'shape_EqLayer'
p8
(I100
I80
tp9
sS'area_EqLayer'
p10
(lp11
F-20000
aF20000
aF-16000
aF16000
as.