(dp1
S'area'
p2
(lp3
I-10000
aI10000
aI-8000
aI8000
asS'spacing'
p4
(lp5
F202.02020202020202
aF202.53164556962025
asS'N'
I8000
sS'shape'
p6
(I100
I80
tp7
sS'DS'
p8
F40915.483953458635
sS'metadata'
p9
S'Generated by computation_points.ipynb on 30 May 2018 17:31:52 UTC'
p10
s.